; Function Attrs: mustprogress uwtable
define void @_ZNK6icu_756number4impl15CurrencySymbols23getFormalCurrencySymbolER10UErrorCode(ptr noalias sret(%"class.icu_75::UnicodeString") align 8 %agg.result, ptr noundef nonnull align 8 dereferenceable(232) %this, ptr noundef nonnull align 4 dereferenceable(4) %status) local_unnamed_addr #1 align 2 personality ptr @__gxx_personality_v0 {
entry:
  %symbolLen.i = alloca i32, align 4
  %agg.tmp.i = alloca %"class.icu_75::ConstChar16Ptr", align 8
  call void @llvm.lifetime.start.p0(i64 4, ptr nonnull %symbolLen.i)
  call void @llvm.lifetime.start.p0(i64 8, ptr nonnull %agg.tmp.i)
  %isoCode.i.i = getelementptr inbounds i8, ptr %this, i64 28
  store i32 0, ptr %symbolLen.i, align 4, !noalias !8
  %fLocaleName.i = getelementptr inbounds i8, ptr %this, i64 40
  %0 = load ptr, ptr %fLocaleName.i, align 8, !noalias !8
  %call3.i = call ptr @ucurr_getName_75(ptr noundef nonnull %isoCode.i.i, ptr noundef %0, i32 noundef 3, ptr noundef null, ptr noundef nonnull %symbolLen.i, ptr noundef nonnull %status), !noalias !8
  %cmp.i = icmp eq ptr %call3.i, %isoCode.i.i
  br i1 %cmp.i, label %if.then.i, label %if.else.i

if.then.i:                                        ; preds = %entry
  call void @_ZN6icu_7513UnicodeStringC1EPKDsi(ptr noundef nonnull align 8 dereferenceable(64) %agg.result, ptr noundef nonnull %isoCode.i.i, i32 noundef 3)
  br label %_ZNK6icu_756number4impl15CurrencySymbols10loadSymbolE14UCurrNameStyleR10UErrorCode.exit

if.else.i:                                        ; preds = %entry
  store ptr %call3.i, ptr %agg.tmp.i, align 8, !noalias !8
  %1 = load i32, ptr %symbolLen.i, align 4, !noalias !8
  invoke void @_ZN6icu_7513UnicodeStringC1EaNS_14ConstChar16PtrEi(ptr noundef nonnull align 8 dereferenceable(64) %agg.result, i8 noundef signext 1, ptr noundef nonnull %agg.tmp.i, i32 noundef %1)
          to label %invoke.cont.i unwind label %lpad.i

invoke.cont.i:                                    ; preds = %if.else.i
  %2 = load ptr, ptr %agg.tmp.i, align 8, !noalias !8
  call void asm sideeffect "", "rm,~{memory},~{dirflag},~{fpsr},~{flags}"(ptr %2) #11, !srcloc !7
  br label %_ZNK6icu_756number4impl15CurrencySymbols10loadSymbolE14UCurrNameStyleR10UErrorCode.exit

lpad.i:                                           ; preds = %if.else.i
  %3 = landingpad { ptr, i32 }
          cleanup
  %4 = load ptr, ptr %agg.tmp.i, align 8, !noalias !8
  call void asm sideeffect "", "rm,~{memory},~{dirflag},~{fpsr},~{flags}"(ptr %4) #11, !srcloc !7
  resume { ptr, i32 } %3

_ZNK6icu_756number4impl15CurrencySymbols10loadSymbolE14UCurrNameStyleR10UErrorCode.exit: ; preds = %if.then.i, %invoke.cont.i
  call void @llvm.lifetime.end.p0(i64 4, ptr nonnull %symbolLen.i)
  call void @llvm.lifetime.end.p0(i64 8, ptr nonnull %agg.tmp.i)
  ret void
}